Archive member included because of file (symbol)

c:/program files (x86)/gnu tools arm embedded/4.9 2014q4/bin/../lib/gcc/arm-none-eabi/4.9.3/../../../../arm-none-eabi/lib/armv7e-m\libg.a(lib_a-memcpy.o)
                              ..\obj\queue.o (memcpy)
c:/program files (x86)/gnu tools arm embedded/4.9 2014q4/bin/../lib/gcc/arm-none-eabi/4.9.3/../../../../arm-none-eabi/lib/armv7e-m\libg.a(lib_a-memset.o)
                              ..\obj\tasks.o (memset)

Allocating common symbols
Common symbol       size              file

xEventGroup         0x4               ..\obj\main.o
CurrentPos          0x4               ..\obj\stm32f4_discovery_audio_codec.o
AUDIO_MAL_DMA_InitStructure
                    0x3c              ..\obj\stm32f4_discovery_audio_codec.o
NVIC_InitStructure  0x4               ..\obj\stm32f4_discovery.o
DMA_InitStructure   0x3c              ..\obj\stm32f4_discovery_audio_codec.o

Discarded input sections

 .text          0x00000000        0x0 ..\obj\heap_4.o
 .data          0x00000000        0x0 ..\obj\heap_4.o
 .text.xPortGetFreeHeapSize
                0x00000000       0x18 ..\obj\heap_4.o
 .text.xPortGetMinimumEverFreeHeapSize
                0x00000000       0x18 ..\obj\heap_4.o
 .text.vPortInitialiseBlocks
                0x00000000        0xc ..\obj\heap_4.o
 .text          0x00000000        0x0 ..\obj\stm32f4xx_syscfg.o
 .data          0x00000000        0x0 ..\obj\stm32f4xx_syscfg.o
 .bss           0x00000000        0x0 ..\obj\stm32f4xx_syscfg.o
 .text.SYSCFG_DeInit
                0x00000000       0x1c ..\obj\stm32f4xx_syscfg.o
 .text.SYSCFG_MemoryRemapConfig
                0x00000000       0x20 ..\obj\stm32f4xx_syscfg.o
 .text.SYSCFG_EXTILineConfig
                0x00000000       0x84 ..\obj\stm32f4xx_syscfg.o
 .text.SYSCFG_ETH_MediaInterfaceConfig
                0x00000000       0x1c ..\obj\stm32f4xx_syscfg.o
 .text.SYSCFG_CompensationCellCmd
                0x00000000       0x20 ..\obj\stm32f4xx_syscfg.o
 .text.SYSCFG_GetCompensationCellStatus
                0x00000000       0x34 ..\obj\stm32f4xx_syscfg.o
 .debug_info    0x00000000      0x26c ..\obj\stm32f4xx_syscfg.o
 .debug_abbrev  0x00000000      0x131 ..\obj\stm32f4xx_syscfg.o
 .debug_aranges
                0x00000000       0x48 ..\obj\stm32f4xx_syscfg.o
 .debug_ranges  0x00000000       0x38 ..\obj\stm32f4xx_syscfg.o
 .debug_line    0x00000000      0x20e ..\obj\stm32f4xx_syscfg.o
 .debug_str     0x00000000      0x2ec ..\obj\stm32f4xx_syscfg.o
 .comment       0x00000000       0x71 ..\obj\stm32f4xx_syscfg.o
 .debug_frame   0x00000000       0xf4 ..\obj\stm32f4xx_syscfg.o
 .ARM.attributes
                0x00000000       0x33 ..\obj\stm32f4xx_syscfg.o
 .text          0x00000000        0x0 ..\obj\stm32f4_discovery_audio_codec.o
 .bss           0x00000000        0x8 ..\obj\stm32f4_discovery_audio_codec.o
 .text.EVAL_AUDIO_SetAudioInterface
                0x00000000      0x100 ..\obj\stm32f4_discovery_audio_codec.o
 .text.EVAL_AUDIO_Init
                0x00000000       0x58 ..\obj\stm32f4_discovery_audio_codec.o
 .text.EVAL_AUDIO_DeInit
                0x00000000       0x14 ..\obj\stm32f4_discovery_audio_codec.o
 .text.EVAL_AUDIO_Play
                0x00000000       0x78 ..\obj\stm32f4_discovery_audio_codec.o
 .text.EVAL_AUDIO_PauseResume
                0x00000000       0x2c ..\obj\stm32f4_discovery_audio_codec.o
 .text.EVAL_AUDIO_Stop
                0x00000000       0x38 ..\obj\stm32f4_discovery_audio_codec.o
 .text.EVAL_AUDIO_VolumeCtl
                0x00000000       0x40 ..\obj\stm32f4_discovery_audio_codec.o
 .text.EVAL_AUDIO_Mute
                0x00000000       0x18 ..\obj\stm32f4_discovery_audio_codec.o
 .text.Codec_Init
                0x00000000      0x158 ..\obj\stm32f4_discovery_audio_codec.o
 .text.Codec_DeInit
                0x00000000       0x34 ..\obj\stm32f4_discovery_audio_codec.o
 .text.Codec_Play
                0x00000000       0x10 ..\obj\stm32f4_discovery_audio_codec.o
 .text.Codec_PauseResume
                0x00000000       0x74 ..\obj\stm32f4_discovery_audio_codec.o
 .text.Codec_Stop
                0x00000000       0x5c ..\obj\stm32f4_discovery_audio_codec.o
 .text.Codec_VolumeCtrl
                0x00000000       0x78 ..\obj\stm32f4_discovery_audio_codec.o
 .text.Codec_Mute
                0x00000000       0x48 ..\obj\stm32f4_discovery_audio_codec.o
 .text.Codec_Reset
                0x00000000       0x28 ..\obj\stm32f4_discovery_audio_codec.o
 .text.Codec_WriteRegister
                0x00000000      0x160 ..\obj\stm32f4_discovery_audio_codec.o
 .text.Codec_ReadRegister
                0x00000000      0x208 ..\obj\stm32f4_discovery_audio_codec.o
 .text.Codec_CtrlInterface_Init
                0x00000000       0x54 ..\obj\stm32f4_discovery_audio_codec.o
 .text.Codec_CtrlInterface_DeInit
                0x00000000        0xc ..\obj\stm32f4_discovery_audio_codec.o
 .text.Codec_AudioInterface_Init
                0x00000000       0x80 ..\obj\stm32f4_discovery_audio_codec.o
 .text.Codec_AudioInterface_DeInit
                0x00000000       0x24 ..\obj\stm32f4_discovery_audio_codec.o
 .text.Codec_GPIO_Init
                0x00000000      0x120 ..\obj\stm32f4_discovery_audio_codec.o
 .text.Codec_GPIO_DeInit
                0x00000000       0x78 ..\obj\stm32f4_discovery_audio_codec.o
 .text.Delay    0x00000000       0x20 ..\obj\stm32f4_discovery_audio_codec.o
 .text.Audio_MAL_Init
                0x00000000      0x130 ..\obj\stm32f4_discovery_audio_codec.o
 .text.Audio_MAL_DeInit
                0x00000000       0x48 ..\obj\stm32f4_discovery_audio_codec.o
 .text.Audio_MAL_Play
                0x00000000       0x8c ..\obj\stm32f4_discovery_audio_codec.o
 .text.Audio_MAL_PauseResume
                0x00000000       0x64 ..\obj\stm32f4_discovery_audio_codec.o
 .text.Audio_MAL_Stop
                0x00000000       0x54 ..\obj\stm32f4_discovery_audio_codec.o
 .text.DAC_Config
                0x00000000       0x5c ..\obj\stm32f4_discovery_audio_codec.o
 .text          0x00000000        0x0 ..\obj\stm32f4xx_dac.o
 .data          0x00000000        0x0 ..\obj\stm32f4xx_dac.o
 .bss           0x00000000        0x0 ..\obj\stm32f4xx_dac.o
 .text.DAC_DeInit
                0x00000000       0x1c ..\obj\stm32f4xx_dac.o
 .text.DAC_Init
                0x00000000       0x64 ..\obj\stm32f4xx_dac.o
 .text.DAC_StructInit
                0x00000000       0x2c ..\obj\stm32f4xx_dac.o
 .text.DAC_Cmd  0x00000000       0x48 ..\obj\stm32f4xx_dac.o
 .text.DAC_SoftwareTriggerCmd
                0x00000000       0x4c ..\obj\stm32f4xx_dac.o
 .text.DAC_DualSoftwareTriggerCmd
                0x00000000       0x38 ..\obj\stm32f4xx_dac.o
 .text.DAC_WaveGenerationCmd
                0x00000000       0x4c ..\obj\stm32f4xx_dac.o
 .text.DAC_SetChannel2Data
                0x00000000       0x34 ..\obj\stm32f4xx_dac.o
 .text.DAC_SetDualChannelData
                0x00000000       0x58 ..\obj\stm32f4xx_dac.o
 .text.DAC_GetDataOutputValue
                0x00000000       0x34 ..\obj\stm32f4xx_dac.o
 .text.DAC_DMACmd
                0x00000000       0x4c ..\obj\stm32f4xx_dac.o
 .text.DAC_ITConfig
                0x00000000       0x4c ..\obj\stm32f4xx_dac.o
 .text.DAC_GetFlagStatus
                0x00000000       0x3c ..\obj\stm32f4xx_dac.o
 .text.DAC_ClearFlag
                0x00000000       0x24 ..\obj\stm32f4xx_dac.o
 .text.DAC_GetITStatus
                0x00000000       0x58 ..\obj\stm32f4xx_dac.o
 .text.DAC_ClearITPendingBit
                0x00000000       0x24 ..\obj\stm32f4xx_dac.o
 .text          0x00000000        0x0 ..\obj\startup_stm32f4xx.o
 .data          0x00000000        0x0 ..\obj\startup_stm32f4xx.o
 .bss           0x00000000        0x0 ..\obj\startup_stm32f4xx.o
 .text          0x00000000        0x0 ..\obj\stm32f4_discovery.o
 .bss           0x00000000        0x0 ..\obj\stm32f4_discovery.o
 .text.STM_EVAL_LEDOn
                0x00000000       0x30 ..\obj\stm32f4_discovery.o
 .text.STM_EVAL_LEDOff
                0x00000000       0x30 ..\obj\stm32f4_discovery.o
 .text.STM_EVAL_PBInit
                0x00000000       0x94 ..\obj\stm32f4_discovery.o
 .text.STM_EVAL_PBGetState
                0x00000000       0x2c ..\obj\stm32f4_discovery.o
 COMMON         0x00000000        0x4 ..\obj\stm32f4_discovery.o
 .text          0x00000000        0x0 ..\obj\main.o
 .data          0x00000000        0x0 ..\obj\main.o
 .bss           0x00000000        0x0 ..\obj\main.o
 COMMON         0x00000000        0x4 ..\obj\main.o
 .text          0x00000000        0x0 ..\obj\stm32f4xx_rcc.o
 .data          0x00000000       0x10 ..\obj\stm32f4xx_rcc.o
 .bss           0x00000000        0x0 ..\obj\stm32f4xx_rcc.o
 .text.RCC_DeInit
                0x00000000       0x50 ..\obj\stm32f4xx_rcc.o
 .text.RCC_HSEConfig
                0x00000000       0x24 ..\obj\stm32f4xx_rcc.o
 .text.RCC_WaitForHSEStartUp
                0x00000000       0x50 ..\obj\stm32f4xx_rcc.o
 .text.RCC_AdjustHSICalibrationValue
                0x00000000       0x3c ..\obj\stm32f4xx_rcc.o
 .text.RCC_HSICmd
                0x00000000       0x20 ..\obj\stm32f4xx_rcc.o
 .text.RCC_LSEConfig
                0x00000000       0x40 ..\obj\stm32f4xx_rcc.o
 .text.RCC_LSICmd
                0x00000000       0x20 ..\obj\stm32f4xx_rcc.o
 .text.RCC_PLLConfig
                0x00000000       0x3c ..\obj\stm32f4xx_rcc.o
 .text.RCC_PLLCmd
                0x00000000       0x20 ..\obj\stm32f4xx_rcc.o
 .text.RCC_PLLI2SConfig
                0x00000000       0x28 ..\obj\stm32f4xx_rcc.o
 .text.RCC_PLLI2SCmd
                0x00000000       0x20 ..\obj\stm32f4xx_rcc.o
 .text.RCC_ClockSecuritySystemCmd
                0x00000000       0x20 ..\obj\stm32f4xx_rcc.o
 .text.RCC_MCO1Config
                0x00000000       0x3c ..\obj\stm32f4xx_rcc.o
 .text.RCC_MCO2Config
                0x00000000       0x3c ..\obj\stm32f4xx_rcc.o
 .text.RCC_SYSCLKConfig
                0x00000000       0x38 ..\obj\stm32f4xx_rcc.o
 .text.RCC_GetSYSCLKSource
                0x00000000       0x20 ..\obj\stm32f4xx_rcc.o
 .text.RCC_HCLKConfig
                0x00000000       0x38 ..\obj\stm32f4xx_rcc.o
 .text.RCC_PCLK1Config
                0x00000000       0x38 ..\obj\stm32f4xx_rcc.o
 .text.RCC_PCLK2Config
                0x00000000       0x38 ..\obj\stm32f4xx_rcc.o
 .text.RCC_GetClocksFreq
                0x00000000      0x154 ..\obj\stm32f4xx_rcc.o
 .text.RCC_RTCCLKConfig
                0x00000000       0x5c ..\obj\stm32f4xx_rcc.o
 .text.RCC_RTCCLKCmd
                0x00000000       0x20 ..\obj\stm32f4xx_rcc.o
 .text.RCC_BackupResetCmd
                0x00000000       0x20 ..\obj\stm32f4xx_rcc.o
 .text.RCC_I2SCLKConfig
                0x00000000       0x1c ..\obj\stm32f4xx_rcc.o
 .text.RCC_AHB2PeriphClockCmd
                0x00000000       0x3c ..\obj\stm32f4xx_rcc.o
 .text.RCC_AHB3PeriphClockCmd
                0x00000000       0x3c ..\obj\stm32f4xx_rcc.o
 .text.RCC_APB1PeriphClockCmd
                0x00000000       0x3c ..\obj\stm32f4xx_rcc.o
 .text.RCC_APB2PeriphClockCmd
                0x00000000       0x3c ..\obj\stm32f4xx_rcc.o
 .text.RCC_AHB1PeriphResetCmd
                0x00000000       0x3c ..\obj\stm32f4xx_rcc.o
 .text.RCC_AHB2PeriphResetCmd
                0x00000000       0x3c ..\obj\stm32f4xx_rcc.o
 .text.RCC_AHB3PeriphResetCmd
                0x00000000       0x3c ..\obj\stm32f4xx_rcc.o
 .text.RCC_APB1PeriphResetCmd
                0x00000000       0x3c ..\obj\stm32f4xx_rcc.o
 .text.RCC_APB2PeriphResetCmd
                0x00000000       0x3c ..\obj\stm32f4xx_rcc.o
 .text.RCC_AHB1PeriphClockLPModeCmd
                0x00000000       0x3c ..\obj\stm32f4xx_rcc.o
 .text.RCC_AHB2PeriphClockLPModeCmd
                0x00000000       0x3c ..\obj\stm32f4xx_rcc.o
 .text.RCC_AHB3PeriphClockLPModeCmd
                0x00000000       0x3c ..\obj\stm32f4xx_rcc.o
 .text.RCC_APB1PeriphClockLPModeCmd
                0x00000000       0x3c ..\obj\stm32f4xx_rcc.o
 .text.RCC_APB2PeriphClockLPModeCmd
                0x00000000       0x3c ..\obj\stm32f4xx_rcc.o
 .text.RCC_ITConfig
                0x00000000       0x4c ..\obj\stm32f4xx_rcc.o
 .text.RCC_GetFlagStatus
                0x00000000       0x74 ..\obj\stm32f4xx_rcc.o
 .text.RCC_ClearFlag
                0x00000000       0x1c ..\obj\stm32f4xx_rcc.o
 .text.RCC_GetITStatus
                0x00000000       0x38 ..\obj\stm32f4xx_rcc.o
 .text.RCC_ClearITPendingBit
                0x00000000       0x20 ..\obj\stm32f4xx_rcc.o
 .text          0x00000000        0x0 ..\obj\timers.o
 .data          0x00000000        0x0 ..\obj\timers.o
 .text.xTimerCreate
                0x00000000       0x74 ..\obj\timers.o
 .text.pcTimerGetTimerName
                0x00000000       0x1c ..\obj\timers.o
 .text.xTimerIsTimerActive
                0x00000000       0x30 ..\obj\timers.o
 .text.pvTimerGetTimerID
                0x00000000       0x1c ..\obj\timers.o
 .text          0x00000000        0x0 ..\obj\tasks.o
 .text.vTaskDelete
                0x00000000       0xb4 ..\obj\tasks.o
 .text.vTaskDelayUntil
                0x00000000       0xd0 ..\obj\tasks.o
 .text.eTaskGetState
                0x00000000       0xa4 ..\obj\tasks.o
 .text.uxTaskPriorityGet
                0x00000000       0x34 ..\obj\tasks.o
 .text.uxTaskPriorityGetFromISR
                0x00000000       0x3c ..\obj\tasks.o
 .text.vTaskPrioritySet
                0x00000000      0x12c ..\obj\tasks.o
 .text.vTaskSuspend
                0x00000000       0xc0 ..\obj\tasks.o
 .text.prvTaskIsTaskSuspended
                0x00000000       0x6c ..\obj\tasks.o
 .text.vTaskResume
                0x00000000       0xa4 ..\obj\tasks.o
 .text.xTaskResumeFromISR
                0x00000000       0xc0 ..\obj\tasks.o
 .text.vTaskEndScheduler
                0x00000000       0x18 ..\obj\tasks.o
 .text.xTaskGetTickCountFromISR
                0x00000000       0x24 ..\obj\tasks.o
 .text.uxTaskGetNumberOfTasks
                0x00000000       0x18 ..\obj\tasks.o
 .text.vTaskSetApplicationTaskTag
                0x00000000       0x34 ..\obj\tasks.o
 .text.xTaskGetApplicationTaskTag
                0x00000000       0x38 ..\obj\tasks.o
 .text.xTaskCallApplicationTaskHook
                0x00000000       0x44 ..\obj\tasks.o
 .text.vTaskPlaceOnUnorderedEventList
                0x00000000       0x98 ..\obj\tasks.o
 .text.xTaskRemoveFromUnorderedEventList
                0x00000000       0xbc ..\obj\tasks.o
 .text.prvTaskCheckFreeStackSpace
                0x00000000       0x38 ..\obj\tasks.o
 .text.uxTaskGetStackHighWaterMark
                0x00000000       0x38 ..\obj\tasks.o
 .text.xTaskGetCurrentTaskHandle
                0x00000000       0x20 ..\obj\tasks.o
 .text.uxTaskResetEventItemValue
                0x00000000       0x30 ..\obj\tasks.o
 .text.ulTaskNotifyTake
                0x00000000       0xb4 ..\obj\tasks.o
 .text.xTaskNotifyWait
                0x00000000       0xd8 ..\obj\tasks.o
 .text.xTaskNotify
                0x00000000      0x114 ..\obj\tasks.o
 .text.xTaskNotifyFromISR
                0x00000000      0x144 ..\obj\tasks.o
 .text.vTaskNotifyGiveFromISR
                0x00000000       0xe8 ..\obj\tasks.o
 .text          0x00000000        0x0 ..\obj\stm32f4xx_gpio.o
 .data          0x00000000        0x0 ..\obj\stm32f4xx_gpio.o
 .bss           0x00000000        0x0 ..\obj\stm32f4xx_gpio.o
 .text.GPIO_DeInit
                0x00000000      0x120 ..\obj\stm32f4xx_gpio.o
 .text.GPIO_StructInit
                0x00000000       0x34 ..\obj\stm32f4xx_gpio.o
 .text.GPIO_PinLockConfig
                0x00000000       0x44 ..\obj\stm32f4xx_gpio.o
 .text.GPIO_ReadInputDataBit
                0x00000000       0x34 ..\obj\stm32f4xx_gpio.o
 .text.GPIO_ReadInputData
                0x00000000       0x1c ..\obj\stm32f4xx_gpio.o
 .text.GPIO_ReadOutputDataBit
                0x00000000       0x34 ..\obj\stm32f4xx_gpio.o
 .text.GPIO_ReadOutputData
                0x00000000       0x1c ..\obj\stm32f4xx_gpio.o
 .text.GPIO_SetBits
                0x00000000       0x1c ..\obj\stm32f4xx_gpio.o
 .text.GPIO_ResetBits
                0x00000000       0x1c ..\obj\stm32f4xx_gpio.o
 .text.GPIO_WriteBit
                0x00000000       0x30 ..\obj\stm32f4xx_gpio.o
 .text.GPIO_Write
                0x00000000       0x1c ..\obj\stm32f4xx_gpio.o
 .text.GPIO_ToggleBits
                0x00000000       0x24 ..\obj\stm32f4xx_gpio.o
 .text.GPIO_PinAFConfig
                0x00000000       0x90 ..\obj\stm32f4xx_gpio.o
 .text          0x00000000        0x0 ..\obj\list.o
 .data          0x00000000        0x0 ..\obj\list.o
 .bss           0x00000000        0x0 ..\obj\list.o
 .text          0x00000000        0x0 ..\obj\system_stm32f4xx.o
 .data          0x00000000       0x14 ..\obj\system_stm32f4xx.o
 .bss           0x00000000        0x0 ..\obj\system_stm32f4xx.o
 .text.SystemInit
                0x00000000       0x58 ..\obj\system_stm32f4xx.o
 .text.SystemCoreClockUpdate
                0x00000000       0xf8 ..\obj\system_stm32f4xx.o
 .text.SetSysClock
                0x00000000       0xf4 ..\obj\system_stm32f4xx.o
 .debug_info    0x00000000      0x592 ..\obj\system_stm32f4xx.o
 .debug_abbrev  0x00000000      0x136 ..\obj\system_stm32f4xx.o
 .debug_aranges
                0x00000000       0x30 ..\obj\system_stm32f4xx.o
 .debug_ranges  0x00000000       0x20 ..\obj\system_stm32f4xx.o
 .debug_line    0x00000000      0x1ed ..\obj\system_stm32f4xx.o
 .debug_str     0x00000000      0x3a2 ..\obj\system_stm32f4xx.o
 .comment       0x00000000       0x71 ..\obj\system_stm32f4xx.o
 .debug_frame   0x00000000       0x7c ..\obj\system_stm32f4xx.o
 .ARM.attributes
                0x00000000       0x33 ..\obj\system_stm32f4xx.o
 .text          0x00000000        0x0 ..\obj\stm32f4xx_dma.o
 .data          0x00000000        0x0 ..\obj\stm32f4xx_dma.o
 .bss           0x00000000        0x0 ..\obj\stm32f4xx_dma.o
 .text.DMA_DeInit
                0x00000000      0x1a4 ..\obj\stm32f4xx_dma.o
 .text.DMA_StructInit
                0x00000000       0x6c ..\obj\stm32f4xx_dma.o
 .text.DMA_PeriphIncOffsetSizeConfig
                0x00000000       0x34 ..\obj\stm32f4xx_dma.o
 .text.DMA_FlowControllerConfig
                0x00000000       0x34 ..\obj\stm32f4xx_dma.o
 .text.DMA_SetCurrDataCounter
                0x00000000       0x1c ..\obj\stm32f4xx_dma.o
 .text.DMA_GetCurrDataCounter
                0x00000000       0x1c ..\obj\stm32f4xx_dma.o
 .text.DMA_DoubleBufferModeConfig
                0x00000000       0x3c ..\obj\stm32f4xx_dma.o
 .text.DMA_DoubleBufferModeCmd
                0x00000000       0x38 ..\obj\stm32f4xx_dma.o
 .text.DMA_MemoryTargetConfig
                0x00000000       0x2c ..\obj\stm32f4xx_dma.o
 .text.DMA_GetCurrentMemoryTarget
                0x00000000       0x30 ..\obj\stm32f4xx_dma.o
 .text.DMA_GetFIFOStatus
                0x00000000       0x24 ..\obj\stm32f4xx_dma.o
 .text.DMA_ITConfig
                0x00000000       0x74 ..\obj\stm32f4xx_dma.o
 .text.DMA_GetITStatus
                0x00000000       0xb0 ..\obj\stm32f4xx_dma.o
 .text.DMA_ClearITPendingBit
                0x00000000       0x5c ..\obj\stm32f4xx_dma.o
 .text          0x00000000        0x0 ..\obj\queue.o
 .data          0x00000000        0x0 ..\obj\queue.o
 .bss           0x00000000        0x0 ..\obj\queue.o
 .text.xQueueCreateMutex
                0x00000000       0x98 ..\obj\queue.o
 .text.xQueueGiveMutexRecursive
                0x00000000       0x60 ..\obj\queue.o
 .text.xQueueTakeMutexRecursive
                0x00000000       0x68 ..\obj\queue.o
 .text.xQueueCreateCountingSemaphore
                0x00000000       0x64 ..\obj\queue.o
 .text.xQueueGiveFromISR
                0x00000000       0xcc ..\obj\queue.o
 .text.xQueueReceiveFromISR
                0x00000000       0xb4 ..\obj\queue.o
 .text.xQueuePeekFromISR
                0x00000000       0x8c ..\obj\queue.o
 .text.uxQueueMessagesWaiting
                0x00000000       0x34 ..\obj\queue.o
 .text.uxQueueSpacesAvailable
                0x00000000       0x40 ..\obj\queue.o
 .text.uxQueueMessagesWaitingFromISR
                0x00000000       0x2c ..\obj\queue.o
 .text.vQueueDelete
                0x00000000       0x2c ..\obj\queue.o
 .text.xQueueIsQueueEmptyFromISR
                0x00000000       0x38 ..\obj\queue.o
 .text.xQueueIsQueueFullFromISR
                0x00000000       0x3c ..\obj\queue.o
 .text.xQueueCreateSet
                0x00000000       0x20 ..\obj\queue.o
 .text.xQueueAddToSet
                0x00000000       0x44 ..\obj\queue.o
 .text.xQueueRemoveFromSet
                0x00000000       0x48 ..\obj\queue.o
 .text.xQueueSelectFromSet
                0x00000000       0x28 ..\obj\queue.o
 .text.xQueueSelectFromSetFromISR
                0x00000000       0x24 ..\obj\queue.o
 .text          0x00000000        0x0 ..\obj\port.o
 .text.vPortEndScheduler
                0x00000000       0x24 ..\obj\port.o
 .text          0x00000000        0x0 ..\obj\stm32f4_discovery_callbacks.o
 .data          0x00000000        0x0 ..\obj\stm32f4_discovery_callbacks.o
 .bss           0x00000000        0x0 ..\obj\stm32f4_discovery_callbacks.o
 .text          0x00000000        0x0 ..\obj\croutine.o
 .data          0x00000000        0x0 ..\obj\croutine.o
 .bss           0x00000000       0x80 ..\obj\croutine.o
 .text.xCoRoutineCreate
                0x00000000       0xcc ..\obj\croutine.o
 .text.vCoRoutineAddToDelayedList
                0x00000000       0x84 ..\obj\croutine.o
 .text.prvCheckPendingReadyList
                0x00000000       0x78 ..\obj\croutine.o
 .text.prvCheckDelayedList
                0x00000000       0xf4 ..\obj\croutine.o
 .text.vCoRoutineSchedule
                0x00000000       0xa0 ..\obj\croutine.o
 .text.prvInitialiseCoRoutineLists
                0x00000000       0x68 ..\obj\croutine.o
 .text.xCoRoutineRemoveFromEventList
                0x00000000       0x50 ..\obj\croutine.o
 .debug_info    0x00000000      0x4bb ..\obj\croutine.o
 .debug_abbrev  0x00000000      0x17e ..\obj\croutine.o
 .debug_aranges
                0x00000000       0x50 ..\obj\croutine.o
 .debug_ranges  0x00000000       0x40 ..\obj\croutine.o
 .debug_line    0x00000000      0x290 ..\obj\croutine.o
 .debug_str     0x00000000      0x4c0 ..\obj\croutine.o
 .comment       0x00000000       0x71 ..\obj\croutine.o
 .debug_frame   0x00000000      0x10c ..\obj\croutine.o
 .ARM.attributes
                0x00000000       0x33 ..\obj\croutine.o
 .text          0x00000000        0x0 ..\obj\stm32f4xx_spi.o
 .data          0x00000000        0x0 ..\obj\stm32f4xx_spi.o
 .bss           0x00000000        0x0 ..\obj\stm32f4xx_spi.o
 .text.SPI_I2S_DeInit
                0x00000000       0x74 ..\obj\stm32f4xx_spi.o
 .text.SPI_Init
                0x00000000       0x88 ..\obj\stm32f4xx_spi.o
 .text.I2S_Init
                0x00000000      0x1b4 ..\obj\stm32f4xx_spi.o
 .text.SPI_StructInit
                0x00000000       0x48 ..\obj\stm32f4xx_spi.o
 .text.I2S_StructInit
                0x00000000       0x38 ..\obj\stm32f4xx_spi.o
 .text.SPI_Cmd  0x00000000       0x40 ..\obj\stm32f4xx_spi.o
 .text.I2S_Cmd  0x00000000       0x40 ..\obj\stm32f4xx_spi.o
 .text.SPI_DataSizeConfig
                0x00000000       0x38 ..\obj\stm32f4xx_spi.o
 .text.SPI_BiDirectionalLineConfig
                0x00000000       0x40 ..\obj\stm32f4xx_spi.o
 .text.SPI_NSSInternalSoftwareConfig
                0x00000000       0x44 ..\obj\stm32f4xx_spi.o
 .text.SPI_SSOutputCmd
                0x00000000       0x40 ..\obj\stm32f4xx_spi.o
 .text.SPI_TIModeCmd
                0x00000000       0x40 ..\obj\stm32f4xx_spi.o
 .text.I2S_FullDuplexConfig
                0x00000000       0x9c ..\obj\stm32f4xx_spi.o
 .text.SPI_I2S_ReceiveData
                0x00000000       0x1c ..\obj\stm32f4xx_spi.o
 .text.SPI_CalculateCRC
                0x00000000       0x40 ..\obj\stm32f4xx_spi.o
 .text.SPI_TransmitCRC
                0x00000000       0x24 ..\obj\stm32f4xx_spi.o
 .text.SPI_GetCRC
                0x00000000       0x34 ..\obj\stm32f4xx_spi.o
 .text.SPI_GetCRCPolynomial
                0x00000000       0x1c ..\obj\stm32f4xx_spi.o
 .text.SPI_I2S_DMACmd
                0x00000000       0x48 ..\obj\stm32f4xx_spi.o
 .text.SPI_I2S_ITConfig
                0x00000000       0x60 ..\obj\stm32f4xx_spi.o
 .text.SPI_I2S_ClearFlag
                0x00000000       0x20 ..\obj\stm32f4xx_spi.o
 .text.SPI_I2S_GetITStatus
                0x00000000       0x78 ..\obj\stm32f4xx_spi.o
 .text.SPI_I2S_ClearITPendingBit
                0x00000000       0x34 ..\obj\stm32f4xx_spi.o
 .text          0x00000000        0x0 ..\obj\event_groups.o
 .data          0x00000000        0x0 ..\obj\event_groups.o
 .bss           0x00000000        0x0 ..\obj\event_groups.o
 .text.xEventGroupCreate
                0x00000000       0x30 ..\obj\event_groups.o
 .rodata        0x00000000       0x38 ..\obj\event_groups.o
 .text.xEventGroupSync
                0x00000000      0x11c ..\obj\event_groups.o
 .text.xEventGroupWaitBits
                0x00000000      0x154 ..\obj\event_groups.o
 .text.xEventGroupClearBits
                0x00000000       0x5c ..\obj\event_groups.o
 .text.xEventGroupGetBitsFromISR
                0x00000000       0x28 ..\obj\event_groups.o
 .text.xEventGroupSetBits
                0x00000000      0x104 ..\obj\event_groups.o
 .text.vEventGroupDelete
                0x00000000       0x58 ..\obj\event_groups.o
 .text.vEventGroupSetBitsCallback
                0x00000000       0x18 ..\obj\event_groups.o
 .text.vEventGroupClearBitsCallback
                0x00000000       0x18 ..\obj\event_groups.o
 .text.prvTestWaitCondition
                0x00000000       0x44 ..\obj\event_groups.o
 .debug_info    0x00000000      0x655 ..\obj\event_groups.o
 .debug_abbrev  0x00000000      0x142 ..\obj\event_groups.o
 .debug_aranges
                0x00000000       0x68 ..\obj\event_groups.o
 .debug_ranges  0x00000000       0x58 ..\obj\event_groups.o
 .debug_line    0x00000000      0x316 ..\obj\event_groups.o
 .debug_str     0x00000000      0x4c1 ..\obj\event_groups.o
 .comment       0x00000000       0x71 ..\obj\event_groups.o
 .debug_frame   0x00000000      0x17c ..\obj\event_groups.o
 .ARM.attributes
                0x00000000       0x33 ..\obj\event_groups.o
 .text          0x00000000        0x0 ..\obj\stm32f4xx_i2c.o
 .data          0x00000000        0x0 ..\obj\stm32f4xx_i2c.o
 .bss           0x00000000        0x0 ..\obj\stm32f4xx_i2c.o
 .text.I2C_DeInit
                0x00000000       0x74 ..\obj\stm32f4xx_i2c.o
 .text.I2C_Init
                0x00000000      0x184 ..\obj\stm32f4xx_i2c.o
 .text.I2C_StructInit
                0x00000000       0x3c ..\obj\stm32f4xx_i2c.o
 .text.I2C_Cmd  0x00000000       0x40 ..\obj\stm32f4xx_i2c.o
 .text.I2C_GenerateSTART
                0x00000000       0x40 ..\obj\stm32f4xx_i2c.o
 .text.I2C_GenerateSTOP
                0x00000000       0x40 ..\obj\stm32f4xx_i2c.o
 .text.I2C_Send7bitAddress
                0x00000000       0x3c ..\obj\stm32f4xx_i2c.o
 .text.I2C_AcknowledgeConfig
                0x00000000       0x40 ..\obj\stm32f4xx_i2c.o
 .text.I2C_OwnAddress2Config
                0x00000000       0x40 ..\obj\stm32f4xx_i2c.o
 .text.I2C_DualAddressCmd
                0x00000000       0x40 ..\obj\stm32f4xx_i2c.o
 .text.I2C_GeneralCallCmd
                0x00000000       0x40 ..\obj\stm32f4xx_i2c.o
 .text.I2C_SoftwareResetCmd
                0x00000000       0x44 ..\obj\stm32f4xx_i2c.o
 .text.I2C_StretchClockCmd
                0x00000000       0x40 ..\obj\stm32f4xx_i2c.o
 .text.I2C_FastModeDutyCycleConfig
                0x00000000       0x40 ..\obj\stm32f4xx_i2c.o
 .text.I2C_NACKPositionConfig
                0x00000000       0x40 ..\obj\stm32f4xx_i2c.o
 .text.I2C_SMBusAlertConfig
                0x00000000       0x40 ..\obj\stm32f4xx_i2c.o
 .text.I2C_ARPCmd
                0x00000000       0x40 ..\obj\stm32f4xx_i2c.o
 .text.I2C_SendData
                0x00000000       0x20 ..\obj\stm32f4xx_i2c.o
 .text.I2C_ReceiveData
                0x00000000       0x1c ..\obj\stm32f4xx_i2c.o
 .text.I2C_TransmitPEC
                0x00000000       0x40 ..\obj\stm32f4xx_i2c.o
 .text.I2C_PECPositionConfig
                0x00000000       0x40 ..\obj\stm32f4xx_i2c.o
 .text.I2C_CalculatePEC
                0x00000000       0x40 ..\obj\stm32f4xx_i2c.o
 .text.I2C_GetPEC
                0x00000000       0x20 ..\obj\stm32f4xx_i2c.o
 .text.I2C_DMACmd
                0x00000000       0x40 ..\obj\stm32f4xx_i2c.o
 .text.I2C_DMALastTransferCmd
                0x00000000       0x40 ..\obj\stm32f4xx_i2c.o
 .text.I2C_ReadRegister
                0x00000000       0x30 ..\obj\stm32f4xx_i2c.o
 .text.I2C_ITConfig
                0x00000000       0x48 ..\obj\stm32f4xx_i2c.o
 .text.I2C_CheckEvent
                0x00000000       0x60 ..\obj\stm32f4xx_i2c.o
 .text.I2C_GetLastEvent
                0x00000000       0x44 ..\obj\stm32f4xx_i2c.o
 .text.I2C_GetFlagStatus
                0x00000000       0x68 ..\obj\stm32f4xx_i2c.o
 .text.I2C_ClearFlag
                0x00000000       0x2c ..\obj\stm32f4xx_i2c.o
 .text.I2C_GetITStatus
                0x00000000       0x5c ..\obj\stm32f4xx_i2c.o
 .text.I2C_ClearITPendingBit
                0x00000000       0x2c ..\obj\stm32f4xx_i2c.o
 .debug_info    0x00000000      0xaf4 ..\obj\stm32f4xx_i2c.o
 .debug_abbrev  0x00000000      0x164 ..\obj\stm32f4xx_i2c.o
 .debug_aranges
                0x00000000      0x120 ..\obj\stm32f4xx_i2c.o
 .debug_ranges  0x00000000      0x110 ..\obj\stm32f4xx_i2c.o
 .debug_line    0x00000000      0x4ca ..\obj\stm32f4xx_i2c.o
 .debug_str     0x00000000      0x65d ..\obj\stm32f4xx_i2c.o
 .comment       0x00000000       0x71 ..\obj\stm32f4xx_i2c.o
 .debug_frame   0x00000000      0x530 ..\obj\stm32f4xx_i2c.o
 .ARM.attributes
                0x00000000       0x33 ..\obj\stm32f4xx_i2c.o
 .text          0x00000000        0x0 ..\obj\stm32f4xx_exti.o
 .data          0x00000000        0x0 ..\obj\stm32f4xx_exti.o
 .bss           0x00000000        0x0 ..\obj\stm32f4xx_exti.o
 .text.EXTI_DeInit
                0x00000000       0x34 ..\obj\stm32f4xx_exti.o
 .text.EXTI_Init
                0x00000000       0xe4 ..\obj\stm32f4xx_exti.o
 .text.EXTI_StructInit
                0x00000000       0x2c ..\obj\stm32f4xx_exti.o
 .text.EXTI_GenerateSWInterrupt
                0x00000000       0x24 ..\obj\stm32f4xx_exti.o
 .text.EXTI_GetFlagStatus
                0x00000000       0x34 ..\obj\stm32f4xx_exti.o
 .text.EXTI_ClearFlag
                0x00000000       0x1c ..\obj\stm32f4xx_exti.o
 .text.EXTI_GetITStatus
                0x00000000       0x48 ..\obj\stm32f4xx_exti.o
 .text.EXTI_ClearITPendingBit
                0x00000000       0x1c ..\obj\stm32f4xx_exti.o
 .debug_info    0x00000000      0x347 ..\obj\stm32f4xx_exti.o
 .debug_abbrev  0x00000000      0x1a5 ..\obj\stm32f4xx_exti.o
 .debug_aranges
                0x00000000       0x58 ..\obj\stm32f4xx_exti.o
 .debug_ranges  0x00000000       0x48 ..\obj\stm32f4xx_exti.o
 .debug_line    0x00000000      0x294 ..\obj\stm32f4xx_exti.o
 .debug_str     0x00000000      0x351 ..\obj\stm32f4xx_exti.o
 .comment       0x00000000       0x71 ..\obj\stm32f4xx_exti.o
 .debug_frame   0x00000000      0x148 ..\obj\stm32f4xx_exti.o
 .ARM.attributes
                0x00000000       0x33 ..\obj\stm32f4xx_exti.o
 .text          0x00000000        0x0 ..\obj\misc.o
 .data          0x00000000        0x0 ..\obj\misc.o
 .bss           0x00000000        0x0 ..\obj\misc.o
 .text.NVIC_PriorityGroupConfig
                0x00000000       0x24 ..\obj\misc.o
 .text.NVIC_Init
                0x00000000       0xc0 ..\obj\misc.o
 .text.NVIC_SetVectorTable
                0x00000000       0x2c ..\obj\misc.o
 .text.NVIC_SystemLPConfig
                0x00000000       0x40 ..\obj\misc.o
 .text.SysTick_CLKSourceConfig
                0x00000000       0x38 ..\obj\misc.o
 .debug_info    0x00000000      0x53d ..\obj\misc.o
 .debug_abbrev  0x00000000      0x145 ..\obj\misc.o
 .debug_aranges
                0x00000000       0x40 ..\obj\misc.o
 .debug_ranges  0x00000000       0x30 ..\obj\misc.o
 .debug_line    0x00000000      0x234 ..\obj\misc.o
 .debug_str     0x00000000      0x3c6 ..\obj\misc.o
 .comment       0x00000000       0x71 ..\obj\misc.o
 .debug_frame   0x00000000       0xd8 ..\obj\misc.o
 .ARM.attributes
                0x00000000       0x33 ..\obj\misc.o
 .text          0x00000000        0x0 ..\obj\stm32f4_discovery_lis302dl.o
 .data          0x00000000        0x4 ..\obj\stm32f4_discovery_lis302dl.o
 .bss           0x00000000        0x0 ..\obj\stm32f4_discovery_lis302dl.o
 .text.LIS302DL_Init
                0x00000000       0x4c ..\obj\stm32f4_discovery_lis302dl.o
 .text.LIS302DL_FilterConfig
                0x00000000       0x54 ..\obj\stm32f4_discovery_lis302dl.o
 .text.LIS302DL_InterruptConfig
                0x00000000       0x44 ..\obj\stm32f4_discovery_lis302dl.o
 .text.LIS302DL_LowpowerCmd
                0x00000000       0x40 ..\obj\stm32f4_discovery_lis302dl.o
 .text.LIS302DL_DataRateCmd
                0x00000000       0x40 ..\obj\stm32f4_discovery_lis302dl.o
 .text.LIS302DL_FullScaleCmd
                0x00000000       0x40 ..\obj\stm32f4_discovery_lis302dl.o
 .text.LIS302DL_RebootCmd
                0x00000000       0x30 ..\obj\stm32f4_discovery_lis302dl.o
 .text.LIS302DL_Write
                0x00000000       0x60 ..\obj\stm32f4_discovery_lis302dl.o
 .text.LIS302DL_Read
                0x00000000       0x6c ..\obj\stm32f4_discovery_lis302dl.o
 .text.LIS302DL_ReadACC
                0x00000000       0xb4 ..\obj\stm32f4_discovery_lis302dl.o
 .text.LIS302DL_LowLevel_Init
                0x00000000      0x134 ..\obj\stm32f4_discovery_lis302dl.o
 .text.LIS302DL_SendByte
                0x00000000       0x90 ..\obj\stm32f4_discovery_lis302dl.o
 .debug_info    0x00000000      0x7c4 ..\obj\stm32f4_discovery_lis302dl.o
 .debug_abbrev  0x00000000      0x1b9 ..\obj\stm32f4_discovery_lis302dl.o
 .debug_aranges
                0x00000000       0x78 ..\obj\stm32f4_discovery_lis302dl.o
 .debug_ranges  0x00000000       0x68 ..\obj\stm32f4_discovery_lis302dl.o
 .debug_line    0x00000000      0x3a6 ..\obj\stm32f4_discovery_lis302dl.o
 .debug_str     0x00000000      0x759 ..\obj\stm32f4_discovery_lis302dl.o
 .comment       0x00000000       0x71 ..\obj\stm32f4_discovery_lis302dl.o
 .debug_frame   0x00000000      0x1c0 ..\obj\stm32f4_discovery_lis302dl.o
 .ARM.attributes
                0x00000000       0x33 ..\obj\stm32f4_discovery_lis302dl.o
 .data          0x00000000        0x0 c:/program files (x86)/gnu tools arm embedded/4.9 2014q4/bin/../lib/gcc/arm-none-eabi/4.9.3/../../../../arm-none-eabi/lib/armv7e-m\libg.a(lib_a-memcpy.o)
 .bss           0x00000000        0x0 c:/program files (x86)/gnu tools arm embedded/4.9 2014q4/bin/../lib/gcc/arm-none-eabi/4.9.3/../../../../arm-none-eabi/lib/armv7e-m\libg.a(lib_a-memcpy.o)
 .text          0x00000000        0x0 c:/program files (x86)/gnu tools arm embedded/4.9 2014q4/bin/../lib/gcc/arm-none-eabi/4.9.3/../../../../arm-none-eabi/lib/armv7e-m\libg.a(lib_a-memset.o)
 .data          0x00000000        0x0 c:/program files (x86)/gnu tools arm embedded/4.9 2014q4/bin/../lib/gcc/arm-none-eabi/4.9.3/../../../../arm-none-eabi/lib/armv7e-m\libg.a(lib_a-memset.o)
 .bss           0x00000000        0x0 c:/program files (x86)/gnu tools arm embedded/4.9 2014q4/bin/../lib/gcc/arm-none-eabi/4.9.3/../../../../arm-none-eabi/lib/armv7e-m\libg.a(lib_a-memset.o)

Memory Configuration

Name             Origin             Length             Attributes
rom              0x08000000         0x00100000         xr
ram              0x20000000         0x00020000         xrw
ram1             0x10000000         0x00010000         xrw
*default*        0x00000000         0xffffffff

Linker script and memory map

                0x20020000                _eram = 0x20020000

.text           0x08000000     0x2f0c
 *(.isr_vector)
 .isr_vector    0x08000000      0x188 ..\obj\startup_stm32f4xx.o
                0x08000000                g_pfnVectors
 *(.text*)
 .text.pvPortMalloc
                0x08000188      0x16c ..\obj\heap_4.o
                0x08000188                pvPortMalloc
 .text.vPortFree
                0x080002f4       0xa0 ..\obj\heap_4.o
                0x080002f4                vPortFree
 .text.prvHeapInit
                0x08000394       0xc4 ..\obj\heap_4.o
 .text.prvInsertBlockIntoFreeList
                0x08000458       0xb0 ..\obj\heap_4.o
 .text.Audio_MAL_IRQHandler
                0x08000508       0xf8 ..\obj\stm32f4_discovery_audio_codec.o
 .text.DMA1_Stream7_IRQHandler
                0x08000600        0xc ..\obj\stm32f4_discovery_audio_codec.o
                0x08000600                DMA1_Stream7_IRQHandler
 .text.DMA1_Stream0_IRQHandler
                0x0800060c        0xc ..\obj\stm32f4_discovery_audio_codec.o
                0x0800060c                DMA1_Stream0_IRQHandler
 .text.SPI3_IRQHandler
                0x08000618       0x40 ..\obj\stm32f4_discovery_audio_codec.o
                0x08000618                SPI3_IRQHandler
 .text.DAC_SetChannel1Data
                0x08000658       0x34 ..\obj\stm32f4xx_dac.o
                0x08000658                DAC_SetChannel1Data
 .text.Default_Reset_Handler
                0x0800068c       0x58 ..\obj\startup_stm32f4xx.o
                0x0800068c                Default_Reset_Handler
                0x0800068c                Reset_Handler
 .text.Default_Handler
                0x080006e4        0x8 ..\obj\startup_stm32f4xx.o
                0x080006e4                RTC_Alarm_IRQHandler
                0x080006e4                HASH_RNG_IRQHandler
                0x080006e4                EXTI2_IRQHandler
                0x080006e4                TIM8_CC_IRQHandler
                0x080006e4                DebugMon_Handler
                0x080006e4                TIM1_CC_IRQHandler
                0x080006e4                DMA2_Stream5_IRQHandler
                0x080006e4                DMA1_Stream5_IRQHandler
                0x080006e4                PVD_IRQHandler
                0x080006e4                SDIO_IRQHandler
                0x080006e4                TAMP_STAMP_IRQHandler
                0x080006e4                NMI_Handler
                0x080006e4                CAN2_RX1_IRQHandler
                0x080006e4                EXTI3_IRQHandler
                0x080006e4                TIM8_TRG_COM_TIM14_IRQHandler
                0x080006e4                TIM1_UP_TIM10_IRQHandler
                0x080006e4                TIM8_UP_TIM13_IRQHandler
                0x080006e4                I2C3_ER_IRQHandler
                0x080006e4                EXTI0_IRQHandler
                0x080006e4                I2C2_EV_IRQHandler
                0x080006e4                DMA1_Stream2_IRQHandler
                0x080006e4                CAN1_RX0_IRQHandler
                0x080006e4                FPU_IRQHandler
                0x080006e4                OTG_HS_WKUP_IRQHandler
                0x080006e4                CAN2_SCE_IRQHandler
                0x080006e4                DMA2_Stream2_IRQHandler
                0x080006e4                SPI1_IRQHandler
                0x080006e4                TIM6_DAC_IRQHandler
                0x080006e4                TIM1_BRK_TIM9_IRQHandler
                0x080006e4                DCMI_IRQHandler
                0x080006e4                CAN2_RX0_IRQHandler
                0x080006e4                DMA2_Stream3_IRQHandler
                0x080006e4                USART6_IRQHandler
                0x080006e4                USART3_IRQHandler
                0x080006e4                CRYP_IRQHandler
                0x080006e4                CAN1_RX1_IRQHandler
                0x080006e4                UART5_IRQHandler
                0x080006e4                DMA2_Stream0_IRQHandler
                0x080006e4                TIM4_IRQHandler
                0x080006e4                I2C1_EV_IRQHandler
                0x080006e4                DMA1_Stream6_IRQHandler
                0x080006e4                DMA1_Stream1_IRQHandler
                0x080006e4                UART4_IRQHandler
                0x080006e4                TIM3_IRQHandler
                0x080006e4                RCC_IRQHandler
                0x080006e4                TIM8_BRK_TIM12_IRQHandler
                0x080006e4                EXTI15_10_IRQHandler
                0x080006e4                ADC_IRQHandler
                0x080006e4                TIM7_IRQHandler
                0x080006e4                CAN2_TX_IRQHandler
                0x080006e4                TIM5_IRQHandler
                0x080006e4                DMA2_Stream7_IRQHandler
                0x080006e4                I2C3_EV_IRQHandler
                0x080006e4                EXTI9_5_IRQHandler
                0x080006e4                RTC_WKUP_IRQHandler
                0x080006e4                ETH_WKUP_IRQHandler
                0x080006e4                SPI2_IRQHandler
                0x080006e4                OTG_HS_EP1_IN_IRQHandler
                0x080006e4                CAN1_TX_IRQHandler
                0x080006e4                EXTI4_IRQHandler
                0x080006e4                FSMC_IRQHandler
                0x080006e4                ETH_IRQHandler
                0x080006e4                OTG_HS_EP1_OUT_IRQHandler
                0x080006e4                WWDG_IRQHandler
                0x080006e4                TIM2_IRQHandler
                0x080006e4                OTG_FS_WKUP_IRQHandler
                0x080006e4                TIM1_TRG_COM_TIM11_IRQHandler
                0x080006e4                OTG_HS_IRQHandler
                0x080006e4                EXTI1_IRQHandler
                0x080006e4                USART2_IRQHandler
                0x080006e4                I2C2_ER_IRQHandler
                0x080006e4                DMA2_Stream1_IRQHandler
                0x080006e4                CAN1_SCE_IRQHandler
                0x080006e4                FLASH_IRQHandler
                0x080006e4                DMA2_Stream4_IRQHandler
                0x080006e4                USART1_IRQHandler
                0x080006e4                OTG_FS_IRQHandler
                0x080006e4                DMA1_Stream4_IRQHandler
                0x080006e4                I2C1_ER_IRQHandler
                0x080006e4                DMA2_Stream6_IRQHandler
                0x080006e4                DMA1_Stream3_IRQHandler
 .text.STM_EVAL_LEDInit
                0x080006ec       0x5c ..\obj\stm32f4_discovery.o
                0x080006ec                STM_EVAL_LEDInit
 .text.STM_EVAL_LEDToggle
                0x08000748       0x3c ..\obj\stm32f4_discovery.o
                0x08000748                STM_EVAL_LEDToggle
 .text.main     0x08000784       0x14 ..\obj\main.o
                0x08000784                main
 .text.createTask1
                0x08000798       0x48 ..\obj\main.o
                0x08000798                createTask1
 .text.vLEDTaskCode1
                0x080007e0       0x1c ..\obj\main.o
                0x080007e0                vLEDTaskCode1
 .text.vApplicationIdleHook
                0x080007fc        0x8 ..\obj\main.o
                0x080007fc                vApplicationIdleHook
 .text.vApplicationMallocFailedHook
                0x08000804        0x8 ..\obj\main.o
                0x08000804                vApplicationMallocFailedHook
 .text.vApplicationStackOverflowHook
                0x0800080c        0xc ..\obj\main.o
                0x0800080c                vApplicationStackOverflowHook
 .text.HardFault_Handler
                0x08000818        0x8 ..\obj\main.o
                0x08000818                HardFault_Handler
 .text.MemManage_Handler
                0x08000820        0x8 ..\obj\main.o
                0x08000820                MemManage_Handler
 .text.BusFault_Handler
                0x08000828        0x8 ..\obj\main.o
                0x08000828                BusFault_Handler
 .text.UsageFault_Handler
                0x08000830        0x8 ..\obj\main.o
                0x08000830                UsageFault_Handler
 .text.freeRTOSAssert
                0x08000838        0xc ..\obj\main.o
                0x08000838                freeRTOSAssert
 .text.RCC_AHB1PeriphClockCmd
                0x08000844       0x3c ..\obj\stm32f4xx_rcc.o
                0x08000844                RCC_AHB1PeriphClockCmd
 .text.xTimerCreateTimerTask
                0x08000880       0x60 ..\obj\timers.o
                0x08000880                xTimerCreateTimerTask
 .text.xTimerGenericCommand
                0x080008e0       0x8c ..\obj\timers.o
                0x080008e0                xTimerGenericCommand
 .text.prvProcessExpiredTimer
                0x0800096c       0x78 ..\obj\timers.o
 .text.prvTimerTask
                0x080009e4       0x24 ..\obj\timers.o
 .text.prvProcessTimerOrBlockTask
                0x08000a08       0x6c ..\obj\timers.o
 .text.prvGetNextExpireTime
                0x08000a74       0x48 ..\obj\timers.o
 .text.prvSampleTimeNow
                0x08000abc       0x40 ..\obj\timers.o
 .text.prvInsertTimerInActiveList
                0x08000afc       0x84 ..\obj\timers.o
 .text.prvProcessReceivedCommands
                0x08000b80      0x11c ..\obj\timers.o
 .text.prvSwitchTimerLists
                0x08000c9c       0xb8 ..\obj\timers.o
 .text.prvCheckForValidListAndQueue
                0x08000d54       0x68 ..\obj\timers.o
 .text.xTaskGenericCreate
                0x08000dbc      0x170 ..\obj\tasks.o
                0x08000dbc                xTaskGenericCreate
 .text.vTaskDelay
                0x08000f2c       0x6c ..\obj\tasks.o
                0x08000f2c                vTaskDelay
 .text.vTaskStartScheduler
                0x08000f98       0x78 ..\obj\tasks.o
                0x08000f98                vTaskStartScheduler
 .text.vTaskSuspendAll
                0x08001010       0x1c ..\obj\tasks.o
                0x08001010                vTaskSuspendAll
 .text.xTaskResumeAll
                0x0800102c      0x114 ..\obj\tasks.o
                0x0800102c                xTaskResumeAll
 .text.xTaskGetTickCount
                0x08001140       0x20 ..\obj\tasks.o
                0x08001140                xTaskGetTickCount
 .text.xTaskIncrementTick
                0x08001160      0x178 ..\obj\tasks.o
                0x08001160                xTaskIncrementTick
 .text.vTaskSwitchContext
                0x080012d8       0xcc ..\obj\tasks.o
                0x080012d8                vTaskSwitchContext
 .text.vTaskPlaceOnEventList
                0x080013a4       0x74 ..\obj\tasks.o
                0x080013a4                vTaskPlaceOnEventList
 .text.vTaskPlaceOnEventListRestricted
                0x08001418       0x58 ..\obj\tasks.o
                0x08001418                vTaskPlaceOnEventListRestricted
 .text.xTaskRemoveFromEventList
                0x08001470       0xc0 ..\obj\tasks.o
                0x08001470                xTaskRemoveFromEventList
 .text.vTaskSetTimeOutState
                0x08001530       0x3c ..\obj\tasks.o
                0x08001530                vTaskSetTimeOutState
 .text.xTaskCheckForTimeOut
                0x0800156c       0xac ..\obj\tasks.o
                0x0800156c                xTaskCheckForTimeOut
 .text.vTaskMissedYield
                0x08001618       0x18 ..\obj\tasks.o
                0x08001618                vTaskMissedYield
 .text.prvIdleTask
                0x08001630       0x24 ..\obj\tasks.o
 .text.prvInitialiseTCBVariables
                0x08001654       0xac ..\obj\tasks.o
 .text.prvInitialiseTaskLists
                0x08001700       0x7c ..\obj\tasks.o
 .text.prvCheckTasksWaitingTermination
                0x0800177c       0x74 ..\obj\tasks.o
 .text.prvAddCurrentTaskToDelayedList
                0x080017f0       0x6c ..\obj\tasks.o
 .text.prvAllocateTCBAndStack
                0x0800185c       0x70 ..\obj\tasks.o
 .text.prvDeleteTCB
                0x080018cc       0x20 ..\obj\tasks.o
 .text.prvResetNextTaskUnblockTime
                0x080018ec       0x48 ..\obj\tasks.o
 .text.xTaskGetSchedulerState
                0x08001934       0x3c ..\obj\tasks.o
                0x08001934                xTaskGetSchedulerState
 .text.vTaskPriorityInherit
                0x08001970       0xbc ..\obj\tasks.o
                0x08001970                vTaskPriorityInherit
 .text.xTaskPriorityDisinherit
                0x08001a2c       0xb0 ..\obj\tasks.o
                0x08001a2c                xTaskPriorityDisinherit
 .text.pvTaskIncrementMutexHeldCount
                0x08001adc       0x28 ..\obj\tasks.o
                0x08001adc                pvTaskIncrementMutexHeldCount
 .text.GPIO_Init
                0x08001b04      0x11c ..\obj\stm32f4xx_gpio.o
                0x08001b04                GPIO_Init
 .text.vListInitialise
                0x08001c20       0x40 ..\obj\list.o
                0x08001c20                vListInitialise
 .text.vListInitialiseItem
                0x08001c60       0x18 ..\obj\list.o
                0x08001c60                vListInitialiseItem
 .text.vListInsertEnd
                0x08001c78       0x48 ..\obj\list.o
                0x08001c78                vListInsertEnd
 .text.vListInsert
                0x08001cc0       0x70 ..\obj\list.o
                0x08001cc0                vListInsert
 .text.uxListRemove
                0x08001d30       0x54 ..\obj\list.o
                0x08001d30                uxListRemove
 .text.DMA_Init
                0x08001d84       0xac ..\obj\stm32f4xx_dma.o
                0x08001d84                DMA_Init
 .text.DMA_Cmd  0x08001e30       0x38 ..\obj\stm32f4xx_dma.o
                0x08001e30                DMA_Cmd
 .text.DMA_GetCmdStatus
                0x08001e68       0x30 ..\obj\stm32f4xx_dma.o
                0x08001e68                DMA_GetCmdStatus
 .text.DMA_GetFlagStatus
                0x08001e98       0x78 ..\obj\stm32f4xx_dma.o
                0x08001e98                DMA_GetFlagStatus
 .text.DMA_ClearFlag
                0x08001f10       0x5c ..\obj\stm32f4xx_dma.o
                0x08001f10                DMA_ClearFlag
 .text.xQueueGenericReset
                0x08001f6c       0xb8 ..\obj\queue.o
                0x08001f6c                xQueueGenericReset
 .text.xQueueGenericCreate
                0x08002024       0xa4 ..\obj\queue.o
                0x08002024                xQueueGenericCreate
 .text.xQueueGenericSend
                0x080020c8      0x1a0 ..\obj\queue.o
                0x080020c8                xQueueGenericSend
 .text.xQueueGenericSendFromISR
                0x08002268       0xf4 ..\obj\queue.o
                0x08002268                xQueueGenericSendFromISR
 .text.xQueueGenericReceive
                0x0800235c      0x1b8 ..\obj\queue.o
                0x0800235c                xQueueGenericReceive
 .text.prvCopyDataToQueue
                0x08002514       0xdc ..\obj\queue.o
 .text.prvCopyDataFromQueue
                0x080025f0       0x4c ..\obj\queue.o
 .text.prvUnlockQueue
                0x0800263c       0xb4 ..\obj\queue.o
 .text.prvIsQueueEmpty
                0x080026f0       0x2c ..\obj\queue.o
 .text.prvIsQueueFull
                0x0800271c       0x30 ..\obj\queue.o
 .text.vQueueWaitForMessageRestricted
                0x0800274c       0x58 ..\obj\queue.o
                0x0800274c                vQueueWaitForMessageRestricted
 .text.prvNotifyQueueSetContainer
                0x080027a4       0x80 ..\obj\queue.o
 .text.pxPortInitialiseStack
                0x08002824       0x58 ..\obj\port.o
                0x08002824                pxPortInitialiseStack
 .text.prvTaskExitError
                0x0800287c       0x24 ..\obj\port.o
 .text.SVC_Handler
                0x080028a0       0x24 ..\obj\port.o
                0x080028a0                SVC_Handler
 .text.prvPortStartFirstTask
                0x080028c4       0x20 ..\obj\port.o
 .text.xPortStartScheduler
                0x080028e4       0xbc ..\obj\port.o
                0x080028e4                xPortStartScheduler
 .text.vPortYield
                0x080029a0       0x20 ..\obj\port.o
                0x080029a0                vPortYield
 .text.vPortEnterCritical
                0x080029c0       0x44 ..\obj\port.o
                0x080029c0                vPortEnterCritical
 .text.vPortExitCritical
                0x08002a04       0x38 ..\obj\port.o
                0x08002a04                vPortExitCritical
 .text.ulPortSetInterruptMask
                0x08002a3c       0x14 ..\obj\port.o
                0x08002a3c                ulPortSetInterruptMask
 .text.vPortClearInterruptMask
                0x08002a50        0x8 ..\obj\port.o
                0x08002a50                vPortClearInterruptMask
 .text.PendSV_Handler
                0x08002a58       0x44 ..\obj\port.o
                0x08002a58                PendSV_Handler
 .text.SysTick_Handler
                0x08002a9c       0x28 ..\obj\port.o
                0x08002a9c                SysTick_Handler
 .text.vPortSetupTimerInterrupt
                0x08002ac4       0x24 ..\obj\port.o
                0x08002ac4                vPortSetupTimerInterrupt
 .text.vPortValidateInterruptPriority
                0x08002ae8       0x64 ..\obj\port.o
                0x08002ae8                vPortValidateInterruptPriority
 .text.EVAL_AUDIO_TransferComplete_CallBack
                0x08002b4c       0x14 ..\obj\stm32f4_discovery_callbacks.o
                0x08002b4c                EVAL_AUDIO_TransferComplete_CallBack
 .text.EVAL_AUDIO_GetSampleCallBack
                0x08002b60       0x10 ..\obj\stm32f4_discovery_callbacks.o
                0x08002b60                EVAL_AUDIO_GetSampleCallBack
 .text.SPI_I2S_SendData
                0x08002b70       0x1c ..\obj\stm32f4xx_spi.o
                0x08002b70                SPI_I2S_SendData
 .text.SPI_I2S_GetFlagStatus
                0x08002b8c       0x38 ..\obj\stm32f4xx_spi.o
                0x08002b8c                SPI_I2S_GetFlagStatus
 .text          0x08002bc4      0x134 c:/program files (x86)/gnu tools arm embedded/4.9 2014q4/bin/../lib/gcc/arm-none-eabi/4.9.3/../../../../arm-none-eabi/lib/armv7e-m\libg.a(lib_a-memcpy.o)
                0x08002bc4                memcpy
 .text.memset   0x08002cf8       0x9c c:/program files (x86)/gnu tools arm embedded/4.9 2014q4/bin/../lib/gcc/arm-none-eabi/4.9.3/../../../../arm-none-eabi/lib/armv7e-m\libg.a(lib_a-memset.o)
                0x08002cf8                memset
 *(.init)
 *(.fini)
 *crtbegin.o(.ctors)
 *crtbegin?.o(.ctors)
 *(EXCLUDE_FILE(*crtend.o *crtend?.o) .ctors)
 *(SORT(.ctors.*))
 *(.ctors)
 *crtbegin.o(.dtors)
 *crtbegin?.o(.dtors)
 *(EXCLUDE_FILE(*crtend.o *crtend?.o) .dtors)
 *(SORT(.dtors.*))
 *(.dtors)
 *(.rodata*)
 .rodata        0x08002d94       0x38 ..\obj\heap_4.o
 .rodata        0x08002dcc       0x30 ..\obj\stm32f4_discovery.o
                0x08002dcc                GPIO_PIN
                0x08002dd4                GPIO_CLK
                0x08002de4                BUTTON_PIN
                0x08002de8                BUTTON_CLK
                0x08002dec                BUTTON_EXTI_LINE
                0x08002df0                BUTTON_PORT_SOURCE
                0x08002df4                BUTTON_PIN_SOURCE
                0x08002df8                BUTTON_IRQn
 .rodata        0x08002dfc       0x30 ..\obj\main.o
 .rodata        0x08002e2c       0x3c ..\obj\timers.o
 .rodata        0x08002e68       0x3c ..\obj\tasks.o
 .rodata        0x08002ea4       0x34 ..\obj\queue.o
 .rodata        0x08002ed8       0x34 ..\obj\port.o
 *(.eh_fram e*)

.glue_7         0x08002f0c        0x0
 .glue_7        0x00000000        0x0 linker stubs

.glue_7t        0x08002f0c        0x0
 .glue_7t       0x00000000        0x0 linker stubs

.vfp11_veneer   0x08002f0c        0x0
 .vfp11_veneer  0x00000000        0x0 linker stubs

.v4_bx          0x08002f0c        0x0
 .v4_bx         0x00000000        0x0 linker stubs

.iplt           0x08002f0c        0x0
 .iplt          0x00000000        0x0 ..\obj\heap_4.o

.rel.dyn        0x08002f0c        0x0
 .rel.iplt      0x00000000        0x0 ..\obj\heap_4.o

.ARM.extab
 *(.ARM.extab* .gnu.linkonce.armextab.*)
                0x08002f0c                __exidx_start = .

.ARM.exidx
 *(.ARM.exidx* .gnu.linkonce.armexidx.*)
                0x08002f0c                __exidx_end = .
                0x08002f0c                __etext = .
                0x08002f0c                _sidata = __etext

.data           0x20000000       0x50 load address 0x08002f0c
                0x20000000                __data_start__ = .
                0x20000000                _sdata = __data_start__
 *(vtable)
 *(.data*)
 .data          0x20000000       0x34 ..\obj\stm32f4_discovery_audio_codec.o
                0x20000000                AudioTotalSize
                0x20000004                AudioRemSize
                0x20000008                CODECTimeout
                0x2000000c                CurrAudioInterface
                0x20000010                AUDIO_MAL_DMA_CLOCK
                0x20000014                AUDIO_MAL_DMA_STREAM
                0x20000018                AUDIO_MAL_DMA_DREG
                0x2000001c                AUDIO_MAL_DMA_IRQ
                0x20000020                AUDIO_MAL_DMA_FLAG_TC
                0x20000024                AUDIO_MAL_DMA_FLAG_HT
                0x20000028                AUDIO_MAL_DMA_FLAG_FE
                0x2000002c                AUDIO_MAL_DMA_FLAG_TE
                0x20000030                AUDIO_MAL_DMA_FLAG_DME
 .data          0x20000034       0x14 ..\obj\stm32f4_discovery.o
                0x20000034                GPIO_PORT
                0x20000044                BUTTON_PORT
 .data          0x20000048        0x4 ..\obj\tasks.o
 .data          0x2000004c        0x4 ..\obj\port.o
                0x20000050                . = ALIGN (0x4)
                0x20000050                PROVIDE (__preinit_array_start, .)
 *(.preinit_array)
                0x20000050                PROVIDE (__preinit_array_end, .)
                0x20000050                . = ALIGN (0x4)
                0x20000050                PROVIDE (__init_array_start, .)
 *(SORT(.init_array.*))
 *(.init_array)
                0x20000050                PROVIDE (__init_array_end, .)
                0x20000050                . = ALIGN (0x4)
                0x20000050                PROVIDE (__fini_array_start, .)
 *(SORT(.fini_array.*))
 *(.fini_array)
                0x20000050                PROVIDE (__fini_array_end, .)
 *(.jcr*)
                0x20000050                . = ALIGN (0x4)
                0x20000050                __data_end__ = .
                0x20000050                _edata = __data_end__

.igot.plt       0x20000050        0x0 load address 0x08002f5c
 .igot.plt      0x00000000        0x0 ..\obj\heap_4.o

.bss            0x20000050     0x15d0 load address 0x08002f5c
                0x20000050                . = ALIGN (0x4)
                0x20000050                __bss_start__ = .
                0x20000050                _sbss = __bss_start__
 *(.bss*)
 .bss           0x20000050     0x1418 ..\obj\heap_4.o
 .bss           0x20001468       0x38 ..\obj\timers.o
 .bss           0x200014a0       0xfc ..\obj\tasks.o
                0x200014a0                pxCurrentTCB
 .bss           0x2000159c        0x8 ..\obj\port.o
 *(COMMON)
 COMMON         0x200015a4       0x7c ..\obj\stm32f4_discovery_audio_codec.o
                0x200015a4                CurrentPos
                0x200015a8                AUDIO_MAL_DMA_InitStructure
                0x200015e4                DMA_InitStructure
                0x20001620                . = ALIGN (0x4)
                0x20001620                __bss_end__ = .
                0x20001620                _ebss = __bss_end__

.heap           0x20001620        0x0
                0x20001620                __end__ = .
                0x20001620                _end = __end__
                0x20001620                end = __end__
 *(.heap*)
                0x20001620                __HeapLimit = .

.co_stack       0x20001620      0x800 load address 0x0800452c
                0x20001620                . = ALIGN (0x8)
 *(.co_stack .co_stack.*)
 .co_stack      0x20001620      0x800 ..\obj\startup_stm32f4xx.o
                0x20001620                pulStack
                0x20020000                __StackTop = (ORIGIN (ram) + 0x20000)
                0x2001f800                __StackLimit = (__StackTop - SIZEOF (.co_stack))
                0x20020000                PROVIDE (__stack, __StackTop)
                0x00000001                ASSERT ((__StackLimit >= __HeapLimit), region ram  overflowed with stack)
LOAD ..\obj\heap_4.o
LOAD ..\obj\stm32f4xx_syscfg.o
LOAD ..\obj\stm32f4_discovery_audio_codec.o
LOAD ..\obj\stm32f4xx_dac.o
LOAD ..\obj\startup_stm32f4xx.o
LOAD ..\obj\stm32f4_discovery.o
LOAD ..\obj\main.o
LOAD ..\obj\stm32f4xx_rcc.o
LOAD ..\obj\timers.o
LOAD ..\obj\tasks.o
LOAD ..\obj\stm32f4xx_gpio.o
LOAD ..\obj\list.o
LOAD ..\obj\system_stm32f4xx.o
LOAD ..\obj\stm32f4xx_dma.o
LOAD ..\obj\queue.o
LOAD ..\obj\port.o
LOAD ..\obj\stm32f4_discovery_callbacks.o
LOAD ..\obj\croutine.o
LOAD ..\obj\stm32f4xx_spi.o
LOAD ..\obj\event_groups.o
LOAD ..\obj\stm32f4xx_i2c.o
LOAD ..\obj\stm32f4xx_exti.o
LOAD ..\obj\misc.o
LOAD ..\obj\stm32f4_discovery_lis302dl.o
LOAD ..\..\..\STM32F4-Discovery\libpdmfilter_gcc.a
START GROUP
LOAD c:/program files (x86)/gnu tools arm embedded/4.9 2014q4/bin/../lib/gcc/arm-none-eabi/4.9.3/armv7e-m\libgcc.a
LOAD c:/program files (x86)/gnu tools arm embedded/4.9 2014q4/bin/../lib/gcc/arm-none-eabi/4.9.3/../../../../arm-none-eabi/lib/armv7e-m\libg.a
LOAD c:/program files (x86)/gnu tools arm embedded/4.9 2014q4/bin/../lib/gcc/arm-none-eabi/4.9.3/../../../../arm-none-eabi/lib/armv7e-m\libc.a
END GROUP
OUTPUT(Oscilloscope.elf elf32-littlearm)

.debug_info     0x00000000     0x7e16
 .debug_info    0x00000000      0x366 ..\obj\heap_4.o
 .debug_info    0x00000366     0x1070 ..\obj\stm32f4_discovery_audio_codec.o
 .debug_info    0x000013d6      0x63a ..\obj\stm32f4xx_dac.o
 .debug_info    0x00001a10       0xed ..\obj\startup_stm32f4xx.o
 .debug_info    0x00001afd      0x889 ..\obj\stm32f4_discovery.o
 .debug_info    0x00002386      0x26c ..\obj\main.o
 .debug_info    0x000025f2      0xc4d ..\obj\stm32f4xx_rcc.o
 .debug_info    0x0000323f      0x87e ..\obj\timers.o
 .debug_info    0x00003abd     0x1629 ..\obj\tasks.o
 .debug_info    0x000050e6      0x602 ..\obj\stm32f4xx_gpio.o
 .debug_info    0x000056e8      0x299 ..\obj\list.o
 .debug_info    0x00005981      0x739 ..\obj\stm32f4xx_dma.o
 .debug_info    0x000060ba      0xdae ..\obj\queue.o
 .debug_info    0x00006e68      0x39e ..\obj\port.o
 .debug_info    0x00007206      0x109 ..\obj\stm32f4_discovery_callbacks.o
 .debug_info    0x0000730f      0xb07 ..\obj\stm32f4xx_spi.o

.debug_abbrev   0x00000000     0x1757
 .debug_abbrev  0x00000000      0x1a4 ..\obj\heap_4.o
 .debug_abbrev  0x000001a4      0x256 ..\obj\stm32f4_discovery_audio_codec.o
 .debug_abbrev  0x000003fa      0x17c ..\obj\stm32f4xx_dac.o
 .debug_abbrev  0x00000576       0xb0 ..\obj\startup_stm32f4xx.o
 .debug_abbrev  0x00000626      0x183 ..\obj\stm32f4_discovery.o
 .debug_abbrev  0x000007a9      0x127 ..\obj\main.o
 .debug_abbrev  0x000008d0      0x1e3 ..\obj\stm32f4xx_rcc.o
 .debug_abbrev  0x00000ab3      0x1a2 ..\obj\timers.o
 .debug_abbrev  0x00000c55      0x24f ..\obj\tasks.o
 .debug_abbrev  0x00000ea4      0x1a3 ..\obj\stm32f4xx_gpio.o
 .debug_abbrev  0x00001047       0xbc ..\obj\list.o
 .debug_abbrev  0x00001103      0x155 ..\obj\stm32f4xx_dma.o
 .debug_abbrev  0x00001258      0x13b ..\obj\queue.o
 .debug_abbrev  0x00001393      0x1cd ..\obj\port.o
 .debug_abbrev  0x00001560       0x90 ..\obj\stm32f4_discovery_callbacks.o
 .debug_abbrev  0x000015f0      0x167 ..\obj\stm32f4xx_spi.o

.debug_aranges  0x00000000      0xae0
 .debug_aranges
                0x00000000       0x50 ..\obj\heap_4.o
 .debug_aranges
                0x00000050      0x130 ..\obj\stm32f4_discovery_audio_codec.o
 .debug_aranges
                0x00000180       0xa0 ..\obj\stm32f4xx_dac.o
 .debug_aranges
                0x00000220       0x28 ..\obj\startup_stm32f4xx.o
 .debug_aranges
                0x00000248       0x48 ..\obj\stm32f4_discovery.o
 .debug_aranges
                0x00000290       0x70 ..\obj\main.o
 .debug_aranges
                0x00000300      0x178 ..\obj\stm32f4xx_rcc.o
 .debug_aranges
                0x00000478       0x90 ..\obj\timers.o
 .debug_aranges
                0x00000508      0x1c0 ..\obj\tasks.o
 .debug_aranges
                0x000006c8       0x88 ..\obj\stm32f4xx_gpio.o
 .debug_aranges
                0x00000750       0x40 ..\obj\list.o
 .debug_aranges
                0x00000790       0xb0 ..\obj\stm32f4xx_dma.o
 .debug_aranges
                0x00000840      0x108 ..\obj\queue.o
 .debug_aranges
                0x00000948       0x90 ..\obj\port.o
 .debug_aranges
                0x000009d8       0x28 ..\obj\stm32f4_discovery_callbacks.o
 .debug_aranges
                0x00000a00       0xe0 ..\obj\stm32f4xx_spi.o

.debug_ranges   0x00000000      0x9e0
 .debug_ranges  0x00000000       0x40 ..\obj\heap_4.o
 .debug_ranges  0x00000040      0x120 ..\obj\stm32f4_discovery_audio_codec.o
 .debug_ranges  0x00000160       0x90 ..\obj\stm32f4xx_dac.o
 .debug_ranges  0x000001f0       0x18 ..\obj\startup_stm32f4xx.o
 .debug_ranges  0x00000208       0x38 ..\obj\stm32f4_discovery.o
 .debug_ranges  0x00000240       0x60 ..\obj\main.o
 .debug_ranges  0x000002a0      0x168 ..\obj\stm32f4xx_rcc.o
 .debug_ranges  0x00000408       0x80 ..\obj\timers.o
 .debug_ranges  0x00000488      0x1b0 ..\obj\tasks.o
 .debug_ranges  0x00000638       0x78 ..\obj\stm32f4xx_gpio.o
 .debug_ranges  0x000006b0       0x30 ..\obj\list.o
 .debug_ranges  0x000006e0       0xa0 ..\obj\stm32f4xx_dma.o
 .debug_ranges  0x00000780       0xf8 ..\obj\queue.o
 .debug_ranges  0x00000878       0x80 ..\obj\port.o
 .debug_ranges  0x000008f8       0x18 ..\obj\stm32f4_discovery_callbacks.o
 .debug_ranges  0x00000910       0xd0 ..\obj\stm32f4xx_spi.o

.debug_line     0x00000000     0x3fc7
 .debug_line    0x00000000      0x299 ..\obj\heap_4.o
 .debug_line    0x00000299      0x6c2 ..\obj\stm32f4_discovery_audio_codec.o
 .debug_line    0x0000095b      0x347 ..\obj\stm32f4xx_dac.o
 .debug_line    0x00000ca2       0x99 ..\obj\startup_stm32f4xx.o
 .debug_line    0x00000d3b      0x298 ..\obj\stm32f4_discovery.o
 .debug_line    0x00000fd3      0x2d8 ..\obj\main.o
 .debug_line    0x000012ab      0x590 ..\obj\stm32f4xx_rcc.o
 .debug_line    0x0000183b      0x371 ..\obj\timers.o
 .debug_line    0x00001bac      0xb91 ..\obj\tasks.o
 .debug_line    0x0000273d      0x332 ..\obj\stm32f4xx_gpio.o
 .debug_line    0x00002a6f      0x1e2 ..\obj\list.o
 .debug_line    0x00002c51      0x3cb ..\obj\stm32f4xx_dma.o
 .debug_line    0x0000301c      0x71f ..\obj\queue.o
 .debug_line    0x0000373b      0x2d6 ..\obj\port.o
 .debug_line    0x00003a11      0x175 ..\obj\stm32f4_discovery_callbacks.o
 .debug_line    0x00003b86      0x441 ..\obj\stm32f4xx_spi.o

.debug_str      0x00000000     0x3d20
 .debug_str     0x00000000      0x30d ..\obj\heap_4.o
                                0x357 (size before relaxing)
 .debug_str     0x0000030d      0xed9 ..\obj\stm32f4_discovery_audio_codec.o
                               0x106a (size before relaxing)
 .debug_str     0x000011e6      0x245 ..\obj\stm32f4xx_dac.o
                                0x44b (size before relaxing)
 .debug_str     0x0000142b       0xa8 ..\obj\startup_stm32f4xx.o
                                0x13f (size before relaxing)
 .debug_str     0x000014d3      0x290 ..\obj\stm32f4_discovery.o
                                0xb2f (size before relaxing)
 .debug_str     0x00001763      0x130 ..\obj\main.o
                                0x2c3 (size before relaxing)
 .debug_str     0x00001893      0x634 ..\obj\stm32f4xx_rcc.o
                                0x848 (size before relaxing)
 .debug_str     0x00001ec7      0x478 ..\obj\timers.o
                                0x63f (size before relaxing)
 .debug_str     0x0000233f      0xadd ..\obj\tasks.o
                                0xd86 (size before relaxing)
 .debug_str     0x00002e1c      0x173 ..\obj\stm32f4xx_gpio.o
                                0x49b (size before relaxing)
 .debug_str     0x00002f8f       0xb9 ..\obj\list.o
                                0x291 (size before relaxing)
 .debug_str     0x00003048      0x25f ..\obj\stm32f4xx_dma.o
                                0x53a (size before relaxing)
 .debug_str     0x000032a7      0x4b2 ..\obj\queue.o
                                0x793 (size before relaxing)
 .debug_str     0x00003759      0x22a ..\obj\port.o
                                0x3c4 (size before relaxing)
 .debug_str     0x00003983       0x80 ..\obj\stm32f4_discovery_callbacks.o
                                0x1dd (size before relaxing)
 .debug_str     0x00003a03      0x31d ..\obj\stm32f4xx_spi.o
                                0x682 (size before relaxing)

.comment        0x00000000       0x70
 .comment       0x00000000       0x70 ..\obj\heap_4.o
                                 0x71 (size before relaxing)
 .comment       0x00000000       0x71 ..\obj\stm32f4_discovery_audio_codec.o
 .comment       0x00000000       0x71 ..\obj\stm32f4xx_dac.o
 .comment       0x00000000       0x71 ..\obj\startup_stm32f4xx.o
 .comment       0x00000000       0x71 ..\obj\stm32f4_discovery.o
 .comment       0x00000000       0x71 ..\obj\main.o
 .comment       0x00000000       0x71 ..\obj\stm32f4xx_rcc.o
 .comment       0x00000000       0x71 ..\obj\timers.o
 .comment       0x00000000       0x71 ..\obj\tasks.o
 .comment       0x00000000       0x71 ..\obj\stm32f4xx_gpio.o
 .comment       0x00000000       0x71 ..\obj\list.o
 .comment       0x00000000       0x71 ..\obj\stm32f4xx_dma.o
 .comment       0x00000000       0x71 ..\obj\queue.o
 .comment       0x00000000       0x71 ..\obj\port.o
 .comment       0x00000000       0x71 ..\obj\stm32f4_discovery_callbacks.o
 .comment       0x00000000       0x71 ..\obj\stm32f4xx_spi.o

.ARM.attributes
                0x00000000       0x31
 .ARM.attributes
                0x00000000       0x33 ..\obj\heap_4.o
 .ARM.attributes
                0x00000033       0x33 ..\obj\stm32f4_discovery_audio_codec.o
 .ARM.attributes
                0x00000066       0x33 ..\obj\stm32f4xx_dac.o
 .ARM.attributes
                0x00000099       0x33 ..\obj\startup_stm32f4xx.o
 .ARM.attributes
                0x000000cc       0x33 ..\obj\stm32f4_discovery.o
 .ARM.attributes
                0x000000ff       0x33 ..\obj\main.o
 .ARM.attributes
                0x00000132       0x33 ..\obj\stm32f4xx_rcc.o
 .ARM.attributes
                0x00000165       0x33 ..\obj\timers.o
 .ARM.attributes
                0x00000198       0x33 ..\obj\tasks.o
 .ARM.attributes
                0x000001cb       0x33 ..\obj\stm32f4xx_gpio.o
 .ARM.attributes
                0x000001fe       0x33 ..\obj\list.o
 .ARM.attributes
                0x00000231       0x33 ..\obj\stm32f4xx_dma.o
 .ARM.attributes
                0x00000264       0x33 ..\obj\queue.o
 .ARM.attributes
                0x00000297       0x33 ..\obj\port.o
 .ARM.attributes
                0x000002ca       0x33 ..\obj\stm32f4_discovery_callbacks.o
 .ARM.attributes
                0x000002fd       0x33 ..\obj\stm32f4xx_spi.o
 .ARM.attributes
                0x00000330       0x1c c:/program files (x86)/gnu tools arm embedded/4.9 2014q4/bin/../lib/gcc/arm-none-eabi/4.9.3/../../../../arm-none-eabi/lib/armv7e-m\libg.a(lib_a-memcpy.o)
 .ARM.attributes
                0x0000034c       0x2e c:/program files (x86)/gnu tools arm embedded/4.9 2014q4/bin/../lib/gcc/arm-none-eabi/4.9.3/../../../../arm-none-eabi/lib/armv7e-m\libg.a(lib_a-memset.o)

.debug_frame    0x00000000     0x2bfc
 .debug_frame   0x00000000      0x108 ..\obj\heap_4.o
 .debug_frame   0x00000108      0x4bc ..\obj\stm32f4_discovery_audio_codec.o
 .debug_frame   0x000005c4      0x2ac ..\obj\stm32f4xx_dac.o
 .debug_frame   0x00000870       0x4c ..\obj\startup_stm32f4xx.o
 .debug_frame   0x000008bc       0xf4 ..\obj\stm32f4_discovery.o
 .debug_frame   0x000009b0      0x138 ..\obj\main.o
 .debug_frame   0x00000ae8      0x6d4 ..\obj\stm32f4xx_rcc.o
 .debug_frame   0x000011bc      0x234 ..\obj\timers.o
 .debug_frame   0x000013f0      0x784 ..\obj\tasks.o
 .debug_frame   0x00001b74      0x23c ..\obj\stm32f4xx_gpio.o
 .debug_frame   0x00001db0       0xd8 ..\obj\list.o
 .debug_frame   0x00001e88      0x308 ..\obj\stm32f4xx_dma.o
 .debug_frame   0x00002190      0x450 ..\obj\queue.o
 .debug_frame   0x000025e0      0x19c ..\obj\port.o
 .debug_frame   0x0000277c       0x58 ..\obj\stm32f4_discovery_callbacks.o
 .debug_frame   0x000027d4      0x3f4 ..\obj\stm32f4xx_spi.o
 .debug_frame   0x00002bc8       0x34 c:/program files (x86)/gnu tools arm embedded/4.9 2014q4/bin/../lib/gcc/arm-none-eabi/4.9.3/../../../../arm-none-eabi/lib/armv7e-m\libg.a(lib_a-memset.o)
